; Function Attrs: mustprogress nofree norecurse nosync nounwind willreturn memory(argmem: write) uwtable
define hidden void @_ZN10smt_params15setup_QF_AUFLIAEv(ptr nocapture noundef nonnull writeonly align 8 dereferenceable(800) %this) local_unnamed_addr #6 align 2 {
entry:
  %m_array_mode = getelementptr inbounds i8, ptr %this, i64 396
  store i32 1, ptr %m_array_mode, align 4
  %m_nnf_cnf = getelementptr inbounds i8, ptr %this, i64 58
  store i8 0, ptr %m_nnf_cnf, align 2
  %m_relevancy_lvl = getelementptr inbounds i8, ptr %this, i64 512
  store i32 2, ptr %m_relevancy_lvl, align 8
  %m_restart_strategy = getelementptr inbounds i8, ptr %this, i64 636
  store i32 0, ptr %m_restart_strategy, align 4
  %m_restart_factor = getelementptr inbounds i8, ptr %this, i64 648
  store double 1.500000e+00, ptr %m_restart_factor, align 8
  %m_phase_selection = getelementptr inbounds i8, ptr %this, i64 552
  store i32 4, ptr %m_phase_selection, align 8
  ret void
}